target datalayout = "e-m:e-p270:32:32-p271:32:32-p272:64:64-i64:64-i128:128-f80:128-n8:16:32:64-S128"
target triple = "x86_64-pc-linux-gnu"

%struct.jpeg_decompress_struct = type { ptr, ptr, ptr, ptr, i32, i32, ptr, i32, i32, i32, i32, i32, i32, i32, double, i32, i32, i32, i32, i32, i32, i32, i32, i32, i32, i32, i32, i32, i32, i32, i32, i32, i32, ptr, i32, i32, i32, i32, i32, ptr, [4 x ptr], [4 x ptr], [4 x ptr], i32, ptr, i32, i32, [16 x i8], [16 x i8], [16 x i8], i32, i32, i8, i8, i8, i16, i16, i32, i8, i32, ptr, i32, i32, i32, i32, ptr, i32, [4 x ptr], i32, i32, i32, [10 x i32], i32, i32, i32, i32, i32, ptr, ptr, ptr, ptr, ptr, ptr, ptr, ptr, ptr, ptr, ptr }
%struct.my_input_controller = type { %struct.jpeg_input_controller, i32 }
%struct.jpeg_input_controller = type { ptr, ptr, ptr, ptr, i32, i32 }
%struct.jpeg_marker_reader = type { ptr, ptr, ptr, i32, i32, i32, i32 }
%struct.jpeg_error_mgr = type { ptr, ptr, ptr, ptr, ptr, i32, %union.anon, i32, i64, ptr, i32, ptr, i32, i32 }
%union.anon = type { [8 x i32], [48 x i8] }

; Function Attrs: nounwind uwtable
define internal void @reset_input_controller(ptr noundef %0) #0 {
  %2 = alloca ptr, align 8
  %3 = alloca ptr, align 8
  store ptr %0, ptr %2, align 8
  %4 = load ptr, ptr %2, align 8
  %5 = getelementptr inbounds %struct.jpeg_decompress_struct, ptr %4, i32 0, i32 81
  %6 = load ptr, ptr %5, align 8
  store ptr %6, ptr %3, align 8
  %7 = load ptr, ptr %3, align 8
  %8 = getelementptr inbounds %struct.my_input_controller, ptr %7, i32 0, i32 0
  %9 = getelementptr inbounds %struct.jpeg_input_controller, ptr %8, i32 0, i32 0
  store ptr @consume_markers, ptr %9, align 8
  %10 = load ptr, ptr %3, align 8
  %11 = getelementptr inbounds %struct.my_input_controller, ptr %10, i32 0, i32 0
  %12 = getelementptr inbounds %struct.jpeg_input_controller, ptr %11, i32 0, i32 4
  store i32 0, ptr %12, align 8
  %13 = load ptr, ptr %3, align 8
  %14 = getelementptr inbounds %struct.my_input_controller, ptr %13, i32 0, i32 0
  %15 = getelementptr inbounds %struct.jpeg_input_controller, ptr %14, i32 0, i32 5
  store i32 0, ptr %15, align 4
  %16 = load ptr, ptr %3, align 8
  %17 = getelementptr inbounds %struct.my_input_controller, ptr %16, i32 0, i32 1
  store i32 1, ptr %17, align 8
  %18 = load ptr, ptr %2, align 8
  %19 = getelementptr inbounds %struct.jpeg_decompress_struct, ptr %18, i32 0, i32 0
  %20 = load ptr, ptr %19, align 8
  %21 = getelementptr inbounds %struct.jpeg_error_mgr, ptr %20, i32 0, i32 4
  %22 = load ptr, ptr %21, align 8
  %23 = load ptr, ptr %2, align 8
  call void %22(ptr noundef %23)
  %24 = load ptr, ptr %2, align 8
  %25 = getelementptr inbounds %struct.jpeg_decompress_struct, ptr %24, i32 0, i32 82
  %26 = load ptr, ptr %25, align 8
  %27 = getelementptr inbounds %struct.jpeg_marker_reader, ptr %26, i32 0, i32 0
  %28 = load ptr, ptr %27, align 8
  %29 = load ptr, ptr %2, align 8
  call void %28(ptr noundef %29)
  %30 = load ptr, ptr %2, align 8
  %31 = getelementptr inbounds %struct.jpeg_decompress_struct, ptr %30, i32 0, i32 39
  store ptr null, ptr %31, align 8
  ret void
}