; Function Attrs: nounwind uwtable
define internal void @reset_input_controller(ptr noundef %0) #0 {
  %2 = getelementptr inbounds i8, ptr %0, i64 576
  %3 = load ptr, ptr %2, align 8
  store ptr @consume_markers, ptr %3, align 8
  %4 = getelementptr inbounds i8, ptr %3, i64 32
  store i32 0, ptr %4, align 8
  %5 = getelementptr inbounds i8, ptr %3, i64 36
  store i32 0, ptr %5, align 4
  %6 = getelementptr inbounds i8, ptr %3, i64 40
  store i32 1, ptr %6, align 8
  %7 = load ptr, ptr %0, align 8
  %8 = getelementptr inbounds i8, ptr %7, i64 32
  %9 = load ptr, ptr %8, align 8
  tail call void %9(ptr noundef nonnull %0) #5
  %10 = getelementptr inbounds i8, ptr %0, i64 584
  %11 = load ptr, ptr %10, align 8
  %12 = load ptr, ptr %11, align 8
  tail call void %12(ptr noundef nonnull %0) #5
  %13 = getelementptr inbounds i8, ptr %0, i64 192
  store ptr null, ptr %13, align 8
  ret void
}